	.file	"PCP3.c"
	.intel_syntax noprefix
	.text
	.globl	main
	.type	main, @function
main:
.LFB0:
	.cfi_startproc
	endbr64
	push	rbp
	.cfi_def_cfa_offset 16
	.cfi_offset 6, -16
	mov	rbp, rsp
	.cfi_def_cfa_register 6
	mov	eax, 0
	pop	rbp
	.cfi_def_cfa 7, 8
	ret
	.cfi_endproc
.LFE0:
	.size	main, .-main
	.globl	modulus
	.type	modulus, @function
modulus:
.LFB1:
	.cfi_startproc
	endbr64
	push	rbp
	.cfi_def_cfa_offset 16
	.cfi_offset 6, -16
	mov	rbp, rsp
	.cfi_def_cfa_register 6
	mov	DWORD PTR -4[rbp], edi
	mov	DWORD PTR -8[rbp], esi
	mov	eax, DWORD PTR -4[rbp]
	cdq
	idiv	DWORD PTR -8[rbp]
	mov	eax, edx
	pop	rbp
	.cfi_def_cfa 7, 8
	ret
	.cfi_endproc
.LFE1:
	.size	modulus, .-modulus
	.globl	mod13
	.type	mod13, @function
mod13:
.LFB2:
	.cfi_startproc
	endbr64
	push	rbp
	.cfi_def_cfa_offset 16
	.cfi_offset 6, -16
	mov	rbp, rsp
	.cfi_def_cfa_register 6
	mov	DWORD PTR -4[rbp], edi
	mov	ecx, DWORD PTR -4[rbp]
	movsx	rax, ecx
	imul	rax, rax, 1321528399
	shr	rax, 32
	mov	edx, eax
	sar	edx, 2
	mov	eax, ecx
	sar	eax, 31
	sub	edx, eax
	mov	eax, edx
	add	eax, eax
	add	eax, edx
	sal	eax, 2
	add	eax, edx
	sub	ecx, eax
	mov	edx, ecx
	mov	eax, edx
	pop	rbp
	.cfi_def_cfa 7, 8
	ret
	.cfi_endproc
.LFE2:
	.size	mod13, .-mod13
	.globl	mod64
	.type	mod64, @function
mod64:
.LFB3:
	.cfi_startproc
	endbr64
	push	rbp
	.cfi_def_cfa_offset 16
	.cfi_offset 6, -16
	mov	rbp, rsp
	.cfi_def_cfa_register 6
	mov	DWORD PTR -4[rbp], edi
	mov	eax, DWORD PTR -4[rbp]
	cdq
	shr	edx, 26
	add	eax, edx
	and	eax, 63
	sub	eax, edx
	pop	rbp
	.cfi_def_cfa 7, 8
	ret
	.cfi_endproc
.LFE3:
	.size	mod64, .-mod64
	.ident	"GCC: (Ubuntu 9.3.0-17ubuntu1~20.04) 9.3.0"
	.section	.note.GNU-stack,"",@progbits
	.section	.note.gnu.property,"a"
	.align 8
	.long	 1f - 0f
	.long	 4f - 1f
	.long	 5
0:
	.string	 "GNU"
1:
	.align 8
	.long	 0xc0000002
	.long	 3f - 2f
2:
	.long	 0x3
3:
	.align 8
4:
